target datalayout = "e-m:e-p270:32:32-p271:32:32-p272:64:64-i64:64-i128:128-f80:128-n8:16:32:64-S128"
target triple = "x86_64-pc-linux-gnu"

@bio_err = external global ptr, align 8
@.str.248 = private unnamed_addr constant [15 x i8] c"serial# buffer\00", align 1
@.str.249 = private unnamed_addr constant [5 x i8] c".srl\00", align 1
@.str.250 = private unnamed_addr constant [33 x i8] c"Serial number increment failure\0A\00", align 1
@.str.251 = private unnamed_addr constant [23 x i8] c"../openssl/apps/x509.c\00", align 1

; Function Attrs: nounwind uwtable
define internal ptr @x509_load_serial(ptr noundef %0, ptr noundef %1, i32 noundef %2) #0 {
  %4 = alloca ptr, align 8
  %5 = alloca ptr, align 8
  %6 = alloca i32, align 4
  %7 = alloca ptr, align 8
  %8 = alloca ptr, align 8
  %9 = alloca ptr, align 8
  %10 = alloca i32, align 4
  %11 = alloca i32, align 4
  %12 = alloca ptr, align 8
  %13 = alloca i64, align 8
  store ptr %0, ptr %4, align 8, !tbaa !21
  store ptr %1, ptr %5, align 8, !tbaa !21
  store i32 %2, ptr %6, align 4, !tbaa !4
  call void @llvm.lifetime.start.p0(i64 8, ptr %7) #8
  store ptr null, ptr %7, align 8, !tbaa !21
  call void @llvm.lifetime.start.p0(i64 8, ptr %8) #8
  store ptr null, ptr %8, align 8, !tbaa !11
  call void @llvm.lifetime.start.p0(i64 8, ptr %9) #8
  store ptr null, ptr %9, align 8, !tbaa !46
  call void @llvm.lifetime.start.p0(i64 4, ptr %10) #8
  store i32 0, ptr %10, align 4, !tbaa !4
  call void @llvm.lifetime.start.p0(i64 4, ptr %11) #8
  %14 = load ptr, ptr %5, align 8, !tbaa !21
  %15 = icmp eq ptr %14, null
  br i1 %15, label %16, label %42

16:                                               ; preds = %3
  call void @llvm.lifetime.start.p0(i64 8, ptr %12) #8
  %17 = load ptr, ptr %4, align 8, !tbaa !21
  %18 = call ptr @strrchr(ptr noundef %17, i32 noundef 46) #9
  store ptr %18, ptr %12, align 8, !tbaa !21
  call void @llvm.lifetime.start.p0(i64 8, ptr %13) #8
  %19 = load ptr, ptr %12, align 8, !tbaa !21
  %20 = icmp ne ptr %19, null
  br i1 %20, label %21, label %27

21:                                               ; preds = %16
  %22 = load ptr, ptr %12, align 8, !tbaa !21
  %23 = load ptr, ptr %4, align 8, !tbaa !21
  %24 = ptrtoint ptr %22 to i64
  %25 = ptrtoint ptr %23 to i64
  %26 = sub i64 %24, %25
  br label %30

27:                                               ; preds = %16
  %28 = load ptr, ptr %4, align 8, !tbaa !21
  %29 = call i64 @strlen(ptr noundef %28) #9
  br label %30

30:                                               ; preds = %27, %21
  %31 = phi i64 [ %26, %21 ], [ %29, %27 ]
  store i64 %31, ptr %13, align 8, !tbaa !25
  %32 = load i64, ptr %13, align 8, !tbaa !25
  %33 = add i64 %32, 5
  %34 = call ptr @app_malloc(i64 noundef %33, ptr noundef @.str.248)
  store ptr %34, ptr %7, align 8, !tbaa !21
  %35 = load ptr, ptr %7, align 8, !tbaa !21
  %36 = load ptr, ptr %4, align 8, !tbaa !21
  %37 = load i64, ptr %13, align 8, !tbaa !25
  call void @llvm.memcpy.p0.p0.i64(ptr align 1 %35, ptr align 1 %36, i64 %37, i1 false)
  %38 = load ptr, ptr %7, align 8, !tbaa !21
  %39 = load i64, ptr %13, align 8, !tbaa !25
  %40 = getelementptr inbounds nuw i8, ptr %38, i64 %39
  call void @llvm.memcpy.p0.p0.i64(ptr align 1 %40, ptr align 1 @.str.249, i64 5, i1 false)
  %41 = load ptr, ptr %7, align 8, !tbaa !21
  store ptr %41, ptr %5, align 8, !tbaa !21
  store i32 1, ptr %10, align 4, !tbaa !4
  call void @llvm.lifetime.end.p0(i64 8, ptr %13) #8
  call void @llvm.lifetime.end.p0(i64 8, ptr %12) #8
  br label %42

42:                                               ; preds = %30, %3
  %43 = load ptr, ptr %5, align 8, !tbaa !21
  %44 = load i32, ptr %6, align 4, !tbaa !4
  %45 = icmp ne i32 %44, 0
  br i1 %45, label %49, label %46

46:                                               ; preds = %42
  %47 = load i32, ptr %10, align 4, !tbaa !4
  %48 = icmp ne i32 %47, 0
  br label %49

49:                                               ; preds = %46, %42
  %50 = phi i1 [ true, %42 ], [ %48, %46 ]
  %51 = zext i1 %50 to i32
  %52 = call ptr @load_serial(ptr noundef %43, ptr noundef %11, i32 noundef %51, ptr noundef null)
  store ptr %52, ptr %9, align 8, !tbaa !46
  %53 = load ptr, ptr %9, align 8, !tbaa !46
  %54 = icmp eq ptr %53, null
  br i1 %54, label %55, label %56

55:                                               ; preds = %49
  br label %77

56:                                               ; preds = %49
  %57 = load ptr, ptr %9, align 8, !tbaa !46
  %58 = call i32 @BN_add_word(ptr noundef %57, i64 noundef 1)
  %59 = icmp ne i32 %58, 0
  br i1 %59, label %63, label %60

60:                                               ; preds = %56
  %61 = load ptr, ptr @bio_err, align 8, !tbaa !15
  %62 = call i32 (ptr, ptr, ...) @BIO_printf(ptr noundef %61, ptr noundef @.str.250)
  br label %77

63:                                               ; preds = %56
  %64 = load i32, ptr %11, align 4, !tbaa !4
  %65 = icmp ne i32 %64, 0
  br i1 %65, label %69, label %66

66:                                               ; preds = %63
  %67 = load i32, ptr %6, align 4, !tbaa !4
  %68 = icmp ne i32 %67, 0
  br i1 %68, label %69, label %73

69:                                               ; preds = %66, %63
  %70 = load ptr, ptr %5, align 8, !tbaa !21
  %71 = load ptr, ptr %9, align 8, !tbaa !46
  %72 = call i32 @save_serial(ptr noundef %70, ptr noundef null, ptr noundef %71, ptr noundef %8)
  br label %76

73:                                               ; preds = %66
  %74 = load ptr, ptr %9, align 8, !tbaa !46
  %75 = call ptr @BN_to_ASN1_INTEGER(ptr noundef %74, ptr noundef null)
  store ptr %75, ptr %8, align 8, !tbaa !11
  br label %76

76:                                               ; preds = %73, %69
  br label %77

77:                                               ; preds = %76, %60, %55
  %78 = load ptr, ptr %7, align 8, !tbaa !21
  call void @CRYPTO_free(ptr noundef %78, ptr noundef @.str.251, i32 noundef 1172)
  %79 = load ptr, ptr %9, align 8, !tbaa !46
  call void @BN_free(ptr noundef %79)
  %80 = load ptr, ptr %8, align 8, !tbaa !11
  call void @llvm.lifetime.end.p0(i64 4, ptr %11) #8
  call void @llvm.lifetime.end.p0(i64 4, ptr %10) #8
  call void @llvm.lifetime.end.p0(i64 8, ptr %9) #8
  call void @llvm.lifetime.end.p0(i64 8, ptr %8) #8
  call void @llvm.lifetime.end.p0(i64 8, ptr %7) #8
  ret ptr %80
}