; Function Attrs: nounwind uwtable
define internal fastcc ptr @x509_load_serial(ptr noundef nonnull %0, ptr noundef %1, i32 noundef %2) unnamed_addr #0 {
  %4 = alloca ptr, align 8
  %5 = alloca i32, align 4
  call void @llvm.lifetime.start.p0(i64 8, ptr nonnull %4) #8
  store ptr null, ptr %4, align 8, !tbaa !20
  call void @llvm.lifetime.start.p0(i64 4, ptr nonnull %5) #8
  %6 = icmp eq ptr %1, null
  br i1 %6, label %7, label %20

7:                                                ; preds = %3
  %8 = tail call ptr @strrchr(ptr noundef nonnull dereferenceable(1) %0, i32 noundef 46) #9
  %.not = icmp eq ptr %8, null
  br i1 %.not, label %13, label %9

9:                                                ; preds = %7
  %10 = ptrtoint ptr %8 to i64
  %11 = ptrtoint ptr %0 to i64
  %12 = sub i64 %10, %11
  br label %15

13:                                               ; preds = %7
  %14 = tail call i64 @strlen(ptr noundef nonnull dereferenceable(1) %0) #9
  br label %15

15:                                               ; preds = %13, %9
  %16 = phi i64 [ %12, %9 ], [ %14, %13 ]
  %17 = add i64 %16, 5
  %18 = tail call ptr @app_malloc(i64 noundef %17, ptr noundef nonnull @.str.248) #8
  tail call void @llvm.memcpy.p0.p0.i64(ptr align 1 %18, ptr nonnull align 1 %0, i64 %16, i1 false)
  %19 = getelementptr inbounds nuw i8, ptr %18, i64 %16
  tail call void @llvm.memcpy.p0.p0.i64(ptr noundef nonnull align 1 dereferenceable(5) %19, ptr noundef nonnull align 1 dereferenceable(5) @.str.249, i64 5, i1 false)
  br label %20

20:                                               ; preds = %15, %3
  %.024 = phi ptr [ %18, %15 ], [ null, %3 ]
  %.0 = phi ptr [ %18, %15 ], [ %1, %3 ]
  %21 = icmp ne i32 %2, 0
  %22 = or i1 %6, %21
  %23 = zext i1 %22 to i32
  %24 = call ptr @load_serial(ptr noundef nonnull %.0, ptr noundef nonnull %5, i32 noundef %23, ptr noundef null) #8
  %25 = icmp eq ptr %24, null
  br i1 %25, label %38, label %26

26:                                               ; preds = %20
  %27 = call i32 @BN_add_word(ptr noundef nonnull %24, i64 noundef 1) #8
  %.not29 = icmp eq i32 %27, 0
  br i1 %.not29, label %28, label %31

28:                                               ; preds = %26
  %29 = load ptr, ptr @bio_err, align 8, !tbaa !13
  %30 = call i32 (ptr, ptr, ...) @BIO_printf(ptr noundef %29, ptr noundef nonnull @.str.250) #8
  br label %38

31:                                               ; preds = %26
  %32 = load i32, ptr %5, align 4, !tbaa !4
  %33 = or i32 %32, %2
  %or.cond.not = icmp eq i32 %33, 0
  br i1 %or.cond.not, label %36, label %34

34:                                               ; preds = %31
  %35 = call i32 @save_serial(ptr noundef nonnull %.0, ptr noundef null, ptr noundef nonnull %24, ptr noundef nonnull %4) #8
  br label %38

36:                                               ; preds = %31
  %37 = call ptr @BN_to_ASN1_INTEGER(ptr noundef nonnull %24, ptr noundef null) #8
  store ptr %37, ptr %4, align 8, !tbaa !20
  br label %38

38:                                               ; preds = %34, %36, %20, %28
  call void @CRYPTO_free(ptr noundef %.024, ptr noundef nonnull @.str.251, i32 noundef 1172) #8
  call void @BN_free(ptr noundef %24) #8
  %39 = load ptr, ptr %4, align 8, !tbaa !20
  call void @llvm.lifetime.end.p0(i64 4, ptr nonnull %5) #8
  call void @llvm.lifetime.end.p0(i64 8, ptr nonnull %4) #8
  ret ptr %39
}